; Function Attrs: nounwind uwtable
define internal ptr @unicode_interninplace(ptr readnone captures(none) %0, ptr noundef %1) #0 {
  %3 = alloca ptr, align 8
  store ptr %1, ptr %3, align 8, !tbaa !8
  %4 = tail call ptr @Py_GetConstantBorrowed(i32 noundef 0) #4
  %5 = icmp eq ptr %1, %4
  br i1 %5, label %.thread, label %6

.thread:                                          ; preds = %2
  store ptr null, ptr %3, align 8, !tbaa !8
  br label %Py_XINCREF.exit

6:                                                ; preds = %2
  %.not.i = icmp eq ptr %1, null
  br i1 %.not.i, label %Py_XINCREF.exit, label %7

7:                                                ; preds = %6
  tail call void @_Py_IncRef(ptr noundef nonnull %1) #4
  br label %Py_XINCREF.exit

Py_XINCREF.exit:                                  ; preds = %.thread, %6, %7
  call void @PyUnicode_InternInPlace(ptr noundef nonnull %3) #4
  %8 = load ptr, ptr %3, align 8, !tbaa !8
  ret ptr %8
}